; Function Attrs: mustprogress nofree norecurse nosync nounwind willreturn memory(argmem: readwrite) uwtable
define ptr @av_filter_iterate(ptr noundef captures(none) %0) local_unnamed_addr #0 {
  %2 = load ptr, ptr %0, align 8, !tbaa !4
  %.not = icmp eq ptr %2, inttoptr (i64 454 to ptr)
  br i1 %.not, label %9, label %3

3:                                                ; preds = %1
  %4 = ptrtoint ptr %2 to i64
  %5 = getelementptr inbounds nuw [455 x ptr], ptr @filter_list, i64 0, i64 %4
  %6 = load ptr, ptr %5, align 8, !tbaa !8
  %7 = add i64 %4, 1
  %8 = inttoptr i64 %7 to ptr
  store ptr %8, ptr %0, align 8, !tbaa !4
  br label %9

9:                                                ; preds = %1, %3
  %.0 = phi ptr [ %6, %3 ], [ null, %1 ]
  ret ptr %.0
}